target datalayout = "e-m:e-p270:32:32-p271:32:32-p272:64:64-i64:64-i128:128-f80:128-n8:16:32:64-S128"
target triple = "x86_64-unknown-linux-gnu"

; Function Attrs: nounwind uwtable
define dso_local i64 @zmalloc_get_rss() #0 {
entry:
  %retval = alloca i64, align 8
  %page = alloca i32, align 4
  %rss = alloca i64, align 8
  %call = call i64 @sysconf(i32 noundef 30) #12
  %conv = trunc i64 %call to i32
  store i32 %conv, ptr %page, align 4
  %call1 = call i32 @get_proc_stat_ll(i32 noundef 24, ptr noundef %rss)
  %tobool = icmp ne i32 %call1, 0
  br i1 %tobool, label %if.end, label %if.then

if.then:                                          ; preds = %entry
  store i64 0, ptr %retval, align 8
  br label %return

if.end:                                           ; preds = %entry
  %0 = load i32, ptr %page, align 4
  %conv2 = sext i32 %0 to i64
  %1 = load i64, ptr %rss, align 8
  %mul = mul nsw i64 %1, %conv2
  store i64 %mul, ptr %rss, align 8
  %2 = load i64, ptr %rss, align 8
  store i64 %2, ptr %retval, align 8
  br label %return

return:                                           ; preds = %if.end, %if.then
  %3 = load i64, ptr %retval, align 8
  ret i64 %3
}