; Function Attrs: nounwind uwtable
define dso_local i64 @zmalloc_get_rss() local_unnamed_addr #3 {
entry:
  %rss = alloca i64, align 8
  %call = tail call i64 @sysconf(i32 noundef 30) #24
  %call1 = call i32 @get_proc_stat_ll(i32 noundef 24, ptr noundef nonnull %rss), !range !7
  %tobool.not = icmp eq i32 %call1, 0
  br i1 %tobool.not, label %return, label %if.end

if.end:                                           ; preds = %entry
  %sext = shl i64 %call, 32
  %conv2 = ashr exact i64 %sext, 32
  %0 = load i64, ptr %rss, align 8
  %mul = mul nsw i64 %0, %conv2
  br label %return

return:                                           ; preds = %entry, %if.end
  %retval.0 = phi i64 [ %mul, %if.end ], [ 0, %entry ]
  ret i64 %retval.0
}